target datalayout = "e-m:e-p270:32:32-p271:32:32-p272:64:64-i64:64-i128:128-f80:128-n8:16:32:64-S128"
target triple = "x86_64-pc-linux-gnu"

; Function Attrs: mustprogress nounwind uwtable
define noundef float @_ZN2cv3hal10normL2Sqr_EPKfS2_i(ptr noundef %0, ptr noundef %1, i32 noundef %2) #1 {
  %4 = alloca ptr, align 8
  %5 = alloca ptr, align 8
  %6 = alloca i32, align 4
  %7 = alloca i32, align 4
  %8 = alloca float, align 4
  %9 = alloca float, align 4
  store ptr %0, ptr %4, align 8
  store ptr %1, ptr %5, align 8
  store i32 %2, ptr %6, align 4
  store i32 0, ptr %7, align 4
  store float 0.000000e+00, ptr %8, align 4
  br label %10

10:                                               ; preds = %30, %3
  %11 = load i32, ptr %7, align 4
  %12 = load i32, ptr %6, align 4
  %13 = icmp slt i32 %11, %12
  br i1 %13, label %14, label %33

14:                                               ; preds = %10
  %15 = load ptr, ptr %4, align 8
  %16 = load i32, ptr %7, align 4
  %17 = sext i32 %16 to i64
  %18 = getelementptr inbounds float, ptr %15, i64 %17
  %19 = load float, ptr %18, align 4
  %20 = load ptr, ptr %5, align 8
  %21 = load i32, ptr %7, align 4
  %22 = sext i32 %21 to i64
  %23 = getelementptr inbounds float, ptr %20, i64 %22
  %24 = load float, ptr %23, align 4
  %25 = fsub float %19, %24
  store float %25, ptr %9, align 4
  %26 = load float, ptr %9, align 4
  %27 = load float, ptr %9, align 4
  %28 = load float, ptr %8, align 4
  %29 = call float @llvm.fmuladd.f32(float %26, float %27, float %28)
  store float %29, ptr %8, align 4
  br label %30

30:                                               ; preds = %14
  %31 = load i32, ptr %7, align 4
  %32 = add nsw i32 %31, 1
  store i32 %32, ptr %7, align 4
  br label %10, !llvm.loop !7

33:                                               ; preds = %10
  %34 = load float, ptr %8, align 4
  ret float %34
}