; Function Attrs: mustprogress nofree norecurse nosync nounwind willreturn memory(argmem: read) uwtable
define noundef float @_ZN2cv3hal10normL2Sqr_EPKfS2_i(ptr noundef readonly captures(none) %0, ptr noundef readonly captures(none) %1, i32 noundef %2) local_unnamed_addr #4 {
  %4 = icmp sgt i32 %2, 0
  br i1 %4, label %.lr.ph.preheader, label %._crit_edge

.lr.ph.preheader:                                 ; preds = %3
  %wide.trip.count = zext nneg i32 %2 to i64
  br label %.lr.ph

.lr.ph:                                           ; preds = %.lr.ph.preheader, %.lr.ph
  %indvars.iv = phi i64 [ 0, %.lr.ph.preheader ], [ %indvars.iv.next, %.lr.ph ]
  %.01011 = phi float [ 0.000000e+00, %.lr.ph.preheader ], [ %10, %.lr.ph ]
  %5 = getelementptr inbounds nuw float, ptr %0, i64 %indvars.iv
  %6 = load float, ptr %5, align 4
  %7 = getelementptr inbounds nuw float, ptr %1, i64 %indvars.iv
  %8 = load float, ptr %7, align 4
  %9 = fsub float %6, %8
  %10 = tail call float @llvm.fmuladd.f32(float %9, float %9, float %.01011)
  %indvars.iv.next = add nuw nsw i64 %indvars.iv, 1
  %exitcond.not = icmp eq i64 %indvars.iv.next, %wide.trip.count
  br i1 %exitcond.not, label %._crit_edge, label %.lr.ph, !llvm.loop !7

._crit_edge:                                      ; preds = %.lr.ph, %3
  %.010.lcssa = phi float [ 0.000000e+00, %3 ], [ %10, %.lr.ph ]
  ret float %.010.lcssa
}